; ModuleID = 'source-C-CXX/28/1197.c'
source_filename = "source-C-CXX/28/1197.c"
target datalayout = "e-m:e-p270:32:32-p271:32:32-p272:64:64-i64:64-f80:128-n8:16:32:64-S128"
target triple = "x86_64-pc-linux-gnu"

@.str = private unnamed_addr constant [3 x i8] c"%d\00", align 1
@.str.1 = private unnamed_addr constant [7 x i8] c"%.3lf\0A\00", align 1

; Function Attrs: nofree nounwind sspstrong uwtable
define dso_local i32 @main() local_unnamed_addr #0 {
  %1 = alloca i32, align 4
  %2 = alloca [100 x i32], align 16
  %3 = alloca [100 x [100 x i32]], align 16
  %4 = alloca [100 x [100 x i32]], align 16
  %5 = bitcast i32* %1 to i8*
  call void @llvm.lifetime.start.p0i8(i64 4, i8* nonnull %5) #3
  %6 = call i32 (i8*, ...) @__isoc99_scanf(i8* getelementptr inbounds ([3 x i8], [3 x i8]* @.str, i64 0, i64 0), i32* nonnull %1)
  %7 = bitcast [100 x i32]* %2 to i8*
  call void @llvm.lifetime.start.p0i8(i64 400, i8* nonnull %7) #3
  %8 = bitcast [100 x [100 x i32]]* %3 to i8*
  call void @llvm.lifetime.start.p0i8(i64 40000, i8* nonnull %8) #3
  %9 = bitcast [100 x [100 x i32]]* %4 to i8*
  call void @llvm.lifetime.start.p0i8(i64 40000, i8* nonnull %9) #3
  %10 = load i32, i32* %1, align 4, !tbaa !5
  %11 = icmp sgt i32 %10, 0
  br i1 %11, label %16, label %113

12:                                               ; preds = %16
  %13 = icmp sgt i32 %21, 0
  br i1 %13, label %14, label %113

14:                                               ; preds = %12
  %15 = zext i32 %21 to i64
  br label %24

16:                                               ; preds = %0, %16
  %17 = phi i64 [ %20, %16 ], [ 0, %0 ]
  %18 = getelementptr inbounds [100 x i32], [100 x i32]* %2, i64 0, i64 %17
  %19 = call i32 (i8*, ...) @__isoc99_scanf(i8* getelementptr inbounds ([3 x i8], [3 x i8]* @.str, i64 0, i64 0), i32* nonnull %18)
  %20 = add nuw nsw i64 %17, 1
  %21 = load i32, i32* %1, align 4, !tbaa !5
  %22 = sext i32 %21 to i64
  %23 = icmp slt i64 %20, %22
  br i1 %23, label %16, label %12, !llvm.loop !9

24:                                               ; preds = %14, %53
  %25 = phi i64 [ 0, %14 ], [ %54, %53 ]
  %26 = getelementptr inbounds [100 x i32], [100 x i32]* %2, i64 0, i64 %25
  %27 = load i32, i32* %26, align 4, !tbaa !5
  %28 = getelementptr inbounds [100 x [100 x i32]], [100 x [100 x i32]]* %3, i64 0, i64 %25, i64 1
  %29 = getelementptr inbounds [100 x [100 x i32]], [100 x [100 x i32]]* %3, i64 0, i64 %25, i64 2
  %30 = getelementptr inbounds [100 x [100 x i32]], [100 x [100 x i32]]* %4, i64 0, i64 %25, i64 1
  %31 = getelementptr inbounds [100 x [100 x i32]], [100 x [100 x i32]]* %4, i64 0, i64 %25, i64 2
  %32 = icmp slt i32 %27, 1
  br i1 %32, label %53, label %33

33:                                               ; preds = %24
  %34 = add nuw i32 %27, 1
  %35 = zext i32 %34 to i64
  br label %36

36:                                               ; preds = %33, %36
  %37 = phi i64 [ 1, %33 ], [ %40, %36 ]
  store i32 2, i32* %28, align 4, !tbaa !5
  store i32 3, i32* %29, align 8, !tbaa !5
  store i32 1, i32* %30, align 4, !tbaa !5
  store i32 2, i32* %31, align 8, !tbaa !5
  %38 = getelementptr inbounds [100 x [100 x i32]], [100 x [100 x i32]]* %3, i64 0, i64 %25, i64 %37
  %39 = load i32, i32* %38, align 4, !tbaa !5
  %40 = add nuw nsw i64 %37, 1
  %41 = getelementptr inbounds [100 x [100 x i32]], [100 x [100 x i32]]* %3, i64 0, i64 %25, i64 %40
  %42 = load i32, i32* %41, align 4, !tbaa !5
  %43 = add nsw i32 %42, %39
  %44 = add nuw nsw i64 %37, 2
  %45 = getelementptr inbounds [100 x [100 x i32]], [100 x [100 x i32]]* %3, i64 0, i64 %25, i64 %44
  store i32 %43, i32* %45, align 4, !tbaa !5
  %46 = getelementptr inbounds [100 x [100 x i32]], [100 x [100 x i32]]* %4, i64 0, i64 %25, i64 %37
  %47 = load i32, i32* %46, align 4, !tbaa !5
  %48 = getelementptr inbounds [100 x [100 x i32]], [100 x [100 x i32]]* %4, i64 0, i64 %25, i64 %40
  %49 = load i32, i32* %48, align 4, !tbaa !5
  %50 = add nsw i32 %49, %47
  %51 = getelementptr inbounds [100 x [100 x i32]], [100 x [100 x i32]]* %4, i64 0, i64 %25, i64 %44
  store i32 %50, i32* %51, align 4, !tbaa !5
  %52 = icmp eq i64 %40, %35
  br i1 %52, label %53, label %36, !llvm.loop !11

53:                                               ; preds = %36, %24
  %54 = add nuw nsw i64 %25, 1
  %55 = icmp eq i64 %54, %15
  br i1 %55, label %56, label %24, !llvm.loop !12

56:                                               ; preds = %53
  br i1 %13, label %57, label %113

57:                                               ; preds = %56, %106
  %58 = phi i64 [ %109, %106 ], [ 0, %56 ]
  %59 = getelementptr inbounds [100 x i32], [100 x i32]* %2, i64 0, i64 %58
  %60 = load i32, i32* %59, align 4, !tbaa !5
  %61 = icmp slt i32 %60, 1
  br i1 %61, label %106, label %62

62:                                               ; preds = %57
  %63 = zext i32 %60 to i64
  %64 = and i64 %63, 1
  %65 = icmp eq i32 %60, 1
  br i1 %65, label %92, label %66

66:                                               ; preds = %62
  %67 = and i64 %63, 4294967294
  br label %68

68:                                               ; preds = %68, %66
  %69 = phi i64 [ 1, %66 ], [ %89, %68 ]
  %70 = phi double [ 0.000000e+00, %66 ], [ %88, %68 ]
  %71 = phi i64 [ %67, %66 ], [ %90, %68 ]
  %72 = getelementptr inbounds [100 x [100 x i32]], [100 x [100 x i32]]* %3, i64 0, i64 %58, i64 %69
  %73 = load i32, i32* %72, align 4, !tbaa !5
  %74 = sitofp i32 %73 to double
  %75 = getelementptr inbounds [100 x [100 x i32]], [100 x [100 x i32]]* %4, i64 0, i64 %58, i64 %69
  %76 = load i32, i32* %75, align 4, !tbaa !5
  %77 = sitofp i32 %76 to double
  %78 = fdiv double %74, %77
  %79 = fadd double %70, %78
  %80 = add nuw nsw i64 %69, 1
  %81 = getelementptr inbounds [100 x [100 x i32]], [100 x [100 x i32]]* %3, i64 0, i64 %58, i64 %80
  %82 = load i32, i32* %81, align 4, !tbaa !5
  %83 = sitofp i32 %82 to double
  %84 = getelementptr inbounds [100 x [100 x i32]], [100 x [100 x i32]]* %4, i64 0, i64 %58, i64 %80
  %85 = load i32, i32* %84, align 4, !tbaa !5
  %86 = sitofp i32 %85 to double
  %87 = fdiv double %83, %86
  %88 = fadd double %79, %87
  %89 = add nuw nsw i64 %69, 2
  %90 = add i64 %71, -2
  %91 = icmp eq i64 %90, 0
  br i1 %91, label %92, label %68, !llvm.loop !13

92:                                               ; preds = %68, %62
  %93 = phi double [ undef, %62 ], [ %88, %68 ]
  %94 = phi i64 [ 1, %62 ], [ %89, %68 ]
  %95 = phi double [ 0.000000e+00, %62 ], [ %88, %68 ]
  %96 = icmp eq i64 %64, 0
  br i1 %96, label %106, label %97

97:                                               ; preds = %92
  %98 = getelementptr inbounds [100 x [100 x i32]], [100 x [100 x i32]]* %3, i64 0, i64 %58, i64 %94
  %99 = load i32, i32* %98, align 4, !tbaa !5
  %100 = sitofp i32 %99 to double
  %101 = getelementptr inbounds [100 x [100 x i32]], [100 x [100 x i32]]* %4, i64 0, i64 %58, i64 %94
  %102 = load i32, i32* %101, align 4, !tbaa !5
  %103 = sitofp i32 %102 to double
  %104 = fdiv double %100, %103
  %105 = fadd double %95, %104
  br label %106

106:                                              ; preds = %97, %92, %57
  %107 = phi double [ 0.000000e+00, %57 ], [ %93, %92 ], [ %105, %97 ]
  %108 = call i32 (i8*, ...) @printf(i8* nonnull dereferenceable(1) getelementptr inbounds ([7 x i8], [7 x i8]* @.str.1, i64 0, i64 0), double %107)
  %109 = add nuw nsw i64 %58, 1
  %110 = load i32, i32* %1, align 4, !tbaa !5
  %111 = sext i32 %110 to i64
  %112 = icmp slt i64 %109, %111
  br i1 %112, label %57, label %113, !llvm.loop !14

113:                                              ; preds = %106, %12, %0, %56
  call void @llvm.lifetime.end.p0i8(i64 40000, i8* nonnull %9) #3
  call void @llvm.lifetime.end.p0i8(i64 40000, i8* nonnull %8) #3
  call void @llvm.lifetime.end.p0i8(i64 400, i8* nonnull %7) #3
  call void @llvm.lifetime.end.p0i8(i64 4, i8* nonnull %5) #3
  ret i32 0
}

; Function Attrs: argmemonly mustprogress nofree nosync nounwind willreturn
declare void @llvm.lifetime.start.p0i8(i64 immarg, i8* nocapture) #1

; Function Attrs: nofree nounwind
declare noundef i32 @__isoc99_scanf(i8* nocapture noundef readonly, ...) local_unnamed_addr #2

; Function Attrs: nofree nounwind
declare noundef i32 @printf(i8* nocapture noundef readonly, ...) local_unnamed_addr #2

; Function Attrs: argmemonly mustprogress nofree nosync nounwind willreturn
declare void @llvm.lifetime.end.p0i8(i64 immarg, i8* nocapture) #1


!llvm.module.flags = !{!0, !1, !2, !3}
!llvm.ident = !{!4}

!0 = !{i32 1, !"wchar_size", i32 4}
!1 = !{i32 7, !"PIC Level", i32 2}
!2 = !{i32 7, !"PIE Level", i32 2}
!3 = !{i32 7, !"uwtable", i32 1}
!4 = !{!"clang version 13.0.0"}
!5 = !{!6, !6, i64 0}
!6 = !{!"int", !7, i64 0}
!7 = !{!"omnipotent char", !8, i64 0}
!8 = !{!"Simple C/C++ TBAA"}
!9 = distinct !{!9, !10}
!10 = !{!"llvm.loop.mustprogress"}
!11 = distinct !{!11, !10}
!12 = distinct !{!12, !10}
!13 = distinct !{!13, !10}
!14 = distinct !{!14, !10}
